target datalayout = "e-m:e-p270:32:32-p271:32:32-p272:64:64-i64:64-i128:128-f80:128-n8:16:32:64-S128"
target triple = "x86_64-pc-linux-gnu"

@hf_sysact_res = internal global i32 0, align 4
@hf_sysact_actctxinfo_cltok = internal global i32 0, align 4
@hf_sysact_unused_buffer = internal global i32 0, align 4
@ett_dcom_actctxinfo = internal global i32 0, align 4
@.str.161 = private unnamed_addr constant [22 x i8] c"ActivationContextInfo\00", align 1
@.str.162 = private unnamed_addr constant [10 x i8] c"ClientPtr\00", align 1
@.str.163 = private unnamed_addr constant [13 x i8] c"PrototypePtr\00", align 1

; Function Attrs: null_pointer_is_valid sspstrong uwtable
define internal i32 @dissect_dcom_ActivationContextInfo(ptr noundef %0, i32 noundef %1, ptr noundef %2, ptr noundef %3, ptr noundef %4, ptr noundef %5, i32 noundef %6) #0 {
  %8 = alloca ptr, align 8
  %9 = alloca i32, align 4
  %10 = alloca ptr, align 8
  %11 = alloca ptr, align 8
  %12 = alloca ptr, align 8
  %13 = alloca ptr, align 8
  %14 = alloca i32, align 4
  %15 = alloca ptr, align 8
  %16 = alloca i32, align 4
  %17 = alloca i32, align 4
  store ptr %0, ptr %8, align 8
  store i32 %1, ptr %9, align 4
  store ptr %2, ptr %10, align 8
  store ptr %3, ptr %11, align 8
  store ptr %4, ptr %12, align 8
  store ptr %5, ptr %13, align 8
  store i32 %6, ptr %14, align 4
  call void @llvm.lifetime.start.p0(i64 8, ptr %15) #5
  call void @llvm.lifetime.start.p0(i64 4, ptr %16) #5
  call void @llvm.lifetime.start.p0(i64 4, ptr %17) #5
  %18 = load i32, ptr %9, align 4
  store i32 %18, ptr %16, align 4
  %19 = load i32, ptr %14, align 4
  %20 = icmp sle i32 %19, 0
  br i1 %20, label %21, label %22

21:                                               ; preds = %7
  store i32 -1, ptr %14, align 4
  br label %22

22:                                               ; preds = %21, %7
  %23 = load ptr, ptr %11, align 8
  %24 = load ptr, ptr %8, align 8
  %25 = load i32, ptr %9, align 4
  %26 = load i32, ptr %14, align 4
  %27 = load i32, ptr @ett_dcom_actctxinfo, align 4
  %28 = call ptr @proto_tree_add_subtree(ptr noundef %23, ptr noundef %24, i32 noundef %25, i32 noundef %26, i32 noundef %27, ptr noundef null, ptr noundef @.str.161)
  store ptr %28, ptr %15, align 8
  %29 = load ptr, ptr %8, align 8
  %30 = load i32, ptr %9, align 4
  %31 = load ptr, ptr %10, align 8
  %32 = load ptr, ptr %15, align 8
  %33 = load ptr, ptr %12, align 8
  %34 = load ptr, ptr %13, align 8
  %35 = call i32 @dissect_TypeSzCommPrivHdr(ptr noundef %29, i32 noundef %30, ptr noundef %31, ptr noundef %32, ptr noundef %33, ptr noundef %34)
  store i32 %35, ptr %9, align 4
  %36 = load ptr, ptr %8, align 8
  %37 = load i32, ptr %9, align 4
  %38 = load ptr, ptr %10, align 8
  %39 = load ptr, ptr %15, align 8
  %40 = load ptr, ptr %12, align 8
  %41 = load ptr, ptr %13, align 8
  %42 = load i32, ptr @hf_sysact_actctxinfo_cltok, align 4
  %43 = call i32 @dissect_ndr_uint32(ptr noundef %36, i32 noundef %37, ptr noundef %38, ptr noundef %39, ptr noundef %40, ptr noundef %41, i32 noundef %42, ptr noundef null)
  store i32 %43, ptr %9, align 4
  %44 = load ptr, ptr %8, align 8
  %45 = load i32, ptr %9, align 4
  %46 = load ptr, ptr %10, align 8
  %47 = load ptr, ptr %15, align 8
  %48 = load ptr, ptr %12, align 8
  %49 = load ptr, ptr %13, align 8
  %50 = load i32, ptr @hf_sysact_res, align 4
  %51 = call i32 @dissect_ndr_uint32(ptr noundef %44, i32 noundef %45, ptr noundef %46, ptr noundef %47, ptr noundef %48, ptr noundef %49, i32 noundef %50, ptr noundef null)
  store i32 %51, ptr %9, align 4
  %52 = load ptr, ptr %8, align 8
  %53 = load i32, ptr %9, align 4
  %54 = load ptr, ptr %10, align 8
  %55 = load ptr, ptr %15, align 8
  %56 = load ptr, ptr %12, align 8
  %57 = load ptr, ptr %13, align 8
  %58 = load i32, ptr @hf_sysact_res, align 4
  %59 = call i32 @dissect_ndr_uint32(ptr noundef %52, i32 noundef %53, ptr noundef %54, ptr noundef %55, ptr noundef %56, ptr noundef %57, i32 noundef %58, ptr noundef null)
  store i32 %59, ptr %9, align 4
  %60 = load ptr, ptr %8, align 8
  %61 = load i32, ptr %9, align 4
  %62 = load ptr, ptr %10, align 8
  %63 = load ptr, ptr %15, align 8
  %64 = load ptr, ptr %12, align 8
  %65 = load ptr, ptr %13, align 8
  %66 = load i32, ptr @hf_sysact_res, align 4
  %67 = call i32 @dissect_ndr_uint32(ptr noundef %60, i32 noundef %61, ptr noundef %62, ptr noundef %63, ptr noundef %64, ptr noundef %65, i32 noundef %66, ptr noundef null)
  store i32 %67, ptr %9, align 4
  %68 = load ptr, ptr %8, align 8
  %69 = load i32, ptr %9, align 4
  %70 = load ptr, ptr %10, align 8
  %71 = load ptr, ptr %15, align 8
  %72 = load ptr, ptr %12, align 8
  %73 = load ptr, ptr %13, align 8
  %74 = call i32 @dissect_ndr_embedded_pointer(ptr noundef %68, i32 noundef %69, ptr noundef %70, ptr noundef %71, ptr noundef %72, ptr noundef %73, ptr noundef @dissect_ActCtxInfo_CltCtx, i32 noundef 2, ptr noundef @.str.162, i32 noundef -1)
  store i32 %74, ptr %9, align 4
  %75 = load ptr, ptr %8, align 8
  %76 = load i32, ptr %9, align 4
  %77 = load ptr, ptr %10, align 8
  %78 = load ptr, ptr %15, align 8
  %79 = load ptr, ptr %12, align 8
  %80 = load ptr, ptr %13, align 8
  %81 = call i32 @dissect_ndr_embedded_pointer(ptr noundef %75, i32 noundef %76, ptr noundef %77, ptr noundef %78, ptr noundef %79, ptr noundef %80, ptr noundef @dissect_ActCtxInfo_PropCtx, i32 noundef 2, ptr noundef @.str.163, i32 noundef -1)
  store i32 %81, ptr %9, align 4
  %82 = load ptr, ptr %10, align 8
  %83 = load ptr, ptr %8, align 8
  %84 = load i32, ptr %9, align 4
  %85 = load ptr, ptr %12, align 8
  %86 = load ptr, ptr %13, align 8
  %87 = call i32 @dissect_deferred_pointers(ptr noundef %82, ptr noundef %83, i32 noundef %84, ptr noundef %85, ptr noundef %86)
  store i32 %87, ptr %9, align 4
  %88 = load i32, ptr %9, align 4
  %89 = load i32, ptr %16, align 4
  %90 = sub i32 %88, %89
  store i32 %90, ptr %17, align 4
  %91 = load i32, ptr %14, align 4
  %92 = load i32, ptr %17, align 4
  %93 = icmp slt i32 %91, %92
  br i1 %93, label %94, label %96

94:                                               ; preds = %22
  %95 = load i32, ptr %17, align 4
  store i32 %95, ptr %14, align 4
  br label %110

96:                                               ; preds = %22
  %97 = load i32, ptr %14, align 4
  %98 = load i32, ptr %17, align 4
  %99 = icmp sgt i32 %97, %98
  br i1 %99, label %100, label %109

100:                                              ; preds = %96
  %101 = load ptr, ptr %15, align 8
  %102 = load i32, ptr @hf_sysact_unused_buffer, align 4
  %103 = load ptr, ptr %8, align 8
  %104 = load i32, ptr %9, align 4
  %105 = load i32, ptr %14, align 4
  %106 = load i32, ptr %17, align 4
  %107 = sub i32 %105, %106
  %108 = call ptr @proto_tree_add_item(ptr noundef %101, i32 noundef %102, ptr noundef %103, i32 noundef %104, i32 noundef %107, i32 noundef 0)
  br label %109

109:                                              ; preds = %100, %96
  br label %110

110:                                              ; preds = %109, %94
  %111 = load i32, ptr %16, align 4
  %112 = load i32, ptr %14, align 4
  %113 = add i32 %111, %112
  store i32 %113, ptr %9, align 4
  %114 = load i32, ptr %9, align 4
  call void @llvm.lifetime.end.p0(i64 4, ptr %17) #5
  call void @llvm.lifetime.end.p0(i64 4, ptr %16) #5
  call void @llvm.lifetime.end.p0(i64 8, ptr %15) #5
  ret i32 %114
}