; Function Attrs: null_pointer_is_valid sspstrong uwtable
define internal i32 @dissect_dcom_ActivationContextInfo(ptr noundef %0, i32 noundef %1, ptr noundef %2, ptr noundef %3, ptr noundef %4, ptr noundef %5, i32 noundef %6) #0 {
  %8 = icmp slt i32 %6, 1
  %spec.store.select = select i1 %8, i32 -1, i32 %6
  %9 = load i32, ptr @ett_dcom_actctxinfo, align 4
  %10 = tail call ptr @proto_tree_add_subtree(ptr noundef %3, ptr noundef %0, i32 noundef %1, i32 noundef %spec.store.select, i32 noundef %9, ptr noundef null, ptr noundef nonnull @.str.161)
  %11 = tail call fastcc i32 @dissect_TypeSzCommPrivHdr(ptr noundef %0, i32 noundef %1, ptr noundef %2, ptr noundef %10, ptr noundef %4, ptr noundef %5)
  %12 = load i32, ptr @hf_sysact_actctxinfo_cltok, align 4
  %13 = tail call i32 @dissect_ndr_uint32(ptr noundef %0, i32 noundef %11, ptr noundef %2, ptr noundef %10, ptr noundef %4, ptr noundef %5, i32 noundef %12, ptr noundef null)
  %14 = load i32, ptr @hf_sysact_res, align 4
  %15 = tail call i32 @dissect_ndr_uint32(ptr noundef %0, i32 noundef %13, ptr noundef %2, ptr noundef %10, ptr noundef %4, ptr noundef %5, i32 noundef %14, ptr noundef null)
  %16 = load i32, ptr @hf_sysact_res, align 4
  %17 = tail call i32 @dissect_ndr_uint32(ptr noundef %0, i32 noundef %15, ptr noundef %2, ptr noundef %10, ptr noundef %4, ptr noundef %5, i32 noundef %16, ptr noundef null)
  %18 = load i32, ptr @hf_sysact_res, align 4
  %19 = tail call i32 @dissect_ndr_uint32(ptr noundef %0, i32 noundef %17, ptr noundef %2, ptr noundef %10, ptr noundef %4, ptr noundef %5, i32 noundef %18, ptr noundef null)
  %20 = tail call i32 @dissect_ndr_embedded_pointer(ptr noundef %0, i32 noundef %19, ptr noundef %2, ptr noundef %10, ptr noundef %4, ptr noundef %5, ptr noundef nonnull @dissect_ActCtxInfo_CltCtx, i32 noundef 2, ptr noundef nonnull @.str.162, i32 noundef -1)
  %21 = tail call i32 @dissect_ndr_embedded_pointer(ptr noundef %0, i32 noundef %20, ptr noundef %2, ptr noundef %10, ptr noundef %4, ptr noundef %5, ptr noundef nonnull @dissect_ActCtxInfo_PropCtx, i32 noundef 2, ptr noundef nonnull @.str.163, i32 noundef -1)
  %22 = tail call i32 @dissect_deferred_pointers(ptr noundef %2, ptr noundef %0, i32 noundef %21, ptr noundef %4, ptr noundef %5)
  %23 = sub i32 %22, %1
  %24 = icmp slt i32 %spec.store.select, %23
  br i1 %24, label %31, label %25

25:                                               ; preds = %7
  %26 = icmp sgt i32 %spec.store.select, %23
  br i1 %26, label %27, label %31

27:                                               ; preds = %25
  %28 = load i32, ptr @hf_sysact_unused_buffer, align 4
  %29 = sub i32 %spec.store.select, %23
  %30 = tail call ptr @proto_tree_add_item(ptr noundef %10, i32 noundef %28, ptr noundef %0, i32 noundef %22, i32 noundef %29, i32 noundef 0)
  br label %31

31:                                               ; preds = %7, %25, %27
  %.0 = phi i32 [ %spec.store.select, %27 ], [ %spec.store.select, %25 ], [ %23, %7 ]
  %32 = add i32 %.0, %1
  ret i32 %32
}